; Function Attrs: mustprogress uwtable
define noundef i32 @_ZN3zmq11ws_engine_t23process_command_messageEPNS_5msg_tE(ptr noundef nonnull align 8 dereferenceable(25696) %this, ptr noundef nonnull %msg_) unnamed_addr #0 align 2 {
entry:
  %call = tail call noundef zeroext i1 @_ZNK3zmq5msg_t7is_pingEv(ptr noundef nonnull align 8 dereferenceable(64) %msg_)
  br i1 %call, label %if.end14.sink.split, label %if.else

if.else:                                          ; preds = %entry
  %call2 = tail call noundef zeroext i1 @_ZNK3zmq5msg_t12is_close_cmdEv(ptr noundef nonnull align 8 dereferenceable(64) %msg_)
  br i1 %call2, label %if.then3, label %if.end14

if.then3:                                         ; preds = %if.else
  %_close_msg = getelementptr inbounds i8, ptr %this, i64 25632
  %call4 = tail call noundef i32 @_ZN3zmq5msg_t4copyERS0_(ptr noundef nonnull align 8 dereferenceable(64) %_close_msg, ptr noundef nonnull align 8 dereferenceable(64) %msg_)
  %cmp.not = icmp eq i32 %call4, 0
  br i1 %cmp.not, label %if.end14.sink.split, label %if.then5

if.then5:                                         ; preds = %if.then3
  %call6 = tail call ptr @__errno_location() #22
  %0 = load i32, ptr %call6, align 4
  %call7 = tail call ptr @strerror(i32 noundef %0) #19
  %1 = load ptr, ptr @stderr, align 8
  %call8 = tail call i32 (ptr, ptr, ...) @fprintf(ptr noundef %1, ptr noundef nonnull @.str.4, ptr noundef %call7, ptr noundef nonnull @.str.5, i32 noundef 980) #23
  %2 = load ptr, ptr @stderr, align 8
  %call9 = tail call i32 @fflush(ptr noundef %2)
  tail call void @_ZN3zmq9zmq_abortEPKc(ptr noundef %call7)
  br label %if.end14.sink.split

if.end14.sink.split:                              ; preds = %if.then5, %if.then3, %entry
  %.sink = phi i64 [ 153, %entry ], [ ptrtoint (ptr @_ZN3zmq11ws_engine_t21produce_close_messageEPNS_5msg_tE to i64), %if.then3 ], [ ptrtoint (ptr @_ZN3zmq11ws_engine_t21produce_close_messageEPNS_5msg_tE to i64), %if.then5 ]
  %_next_msg10 = getelementptr inbounds i8, ptr %this, i64 1416
  store i64 %.sink, ptr %_next_msg10, align 8
  %_next_msg10.repack4 = getelementptr inbounds i8, ptr %this, i64 1424
  store i64 0, ptr %_next_msg10.repack4, align 8
  %vtable11 = load ptr, ptr %this, align 8
  %vfn12 = getelementptr inbounds i8, ptr %vtable11, i64 24
  %3 = load ptr, ptr %vfn12, align 8
  tail call void %3(ptr noundef nonnull align 8 dereferenceable(1689) %this)
  br label %if.end14

if.end14:                                         ; preds = %if.end14.sink.split, %if.else
  ret i32 0
}